(lp0
I12843449
aI9218763
aI7618409
aI10100830
aI15668423
aI1368284
aI14596266
aI15286422
aI10153316
aI11405555
aI9745322
aI2868008
aI6854458
aI13213067
aI1230356
aI14471973
aI9163237
aI10729016
aI2480209
aI11633764
aI4696886
aI3101459
aI2646546
aI11998192
aI7112423
aI7203187
aI559812
aI11635035
aI11763783
aI10412246
aI7164501
aI6630988
aI15466330
aI1783579
aI778565
aI12645702
aI9387837
aI3115977
aI3372947
aI4294077
aI14414455
aI1609585
aI5515033
aI6720828
aI13969557
aI12979962
aI7344642
aI6427638
aI3297095
aI4228829
aI4686735
aI1433569
aI15204142
aI4800105
aI8638102
aI5999579
aI12301834
aI571439
aI13171187
aI2529595
aI8045005
a.