(dp0
(I4
I-3
tp1
(dp2
S'\xe5\x9c\xb0\xe5\xbd\xa2'
p3
S'\xe5\xa4\xa7\xe6\xb5\xb7'
p4
sS'\xe5\x9c\xb0\xe5\x8c\xba'
p5
I75
sS'\xe7\xb1\xbb\xe5\x9e\x8b'
p6
S'\xe5\x86\x9c\xe4\xb8\x9a\xe7\x94\xa8\xe5\x9c\xb0'
p7
ss(I-7
I-3
tp8
(dp9
g3
S'\xe6\xa0\x91\xe6\x9e\x97'
p10
sg5
I38
sg6
S'\xe4\xbd\x8f\xe5\xae\x85\xe7\x94\xa8\xe5\x9c\xb0'
p11
ss(I5
I0
tp12
(dp13
g3
S'\xe6\xb2\x99\xe6\xbc\xa0'
p14
sg5
I85
sg6
S'\xe5\x95\x86\xe4\xb8\x9a\xe7\x94\xa8\xe5\x9c\xb0'
p15
ss(I-2
I0
tp16
(dp17
g3
g10
sg5
I9
sg6
g11
ss(I1
I-5
tp18
(dp19
g3
S'\xe5\xb9\xb3\xe5\x8e\x9f'
p20
sg5
I69
sg6
g7
ss(I-1
I-3
tp21
(dp22
g3
g4
sg5
I18
sg6
g15
ss(I-4
I3
tp23
(dp24
g3
S'\xe6\xb2\xbc\xe6\xb3\xbd'
p25
sg5
I56
sg6
g7
ss(I2
I-1
tp26
(dp27
g3
S'\xe6\xa3\xae\xe6\x9e\x97'
p28
sg5
I26
sg6
g15
ss(I-1
I0
tp29
(dp30
g3
g20
sg5
I15
sg6
g7
ss(I-5
I1
tp31
(dp32
g3
S'\xe5\xb1\xb11'
p33
sg5
I49
sg6
g7
ss(I-6
I-5
tp34
(dp35
g3
g25
sg5
I37
sg6
g11
ss(I-5
I-5
tp36
(dp37
g3
g25
sg5
I36
sg6
g15
ss(I6
I0
tp38
(dp39
g3
g33
sg5
I92
sg6
g15
ss(I5
I-3
tp40
(dp41
g3
g4
sg5
I82
sg6
g15
ss(I3
I0
tp42
(dp43
g3
g4
sg5
I31
sg6
g11
ss(I0
I4
tp44
(dp45
g3
g33
sg5
I61
sg6
g7
ss(I3
I-4
tp46
(dp47
g3
g4
sg5
I71
sg6
g11
ss(I5
I3
tp48
(dp49
g3
g25
sg5
I87
sg6
g7
ss(I1
I1
tp50
(dp51
g3
g10
sg5
I23
sg6
g7
ss(I-3
I-4
tp52
(dp53
g3
g14
sg5
I58
sg6
g15
ss(I-6
I1
tp54
(dp55
g3
g25
sg5
I48
sg6
g15
ss(I-4
I-3
tp56
(dp57
g3
g28
sg5
I3
sg6
g15
ss(I-2
I-2
tp58
(dp59
g3
g33
sg5
I2
sg6
g15
ss(I2
I2
tp60
(dp61
g3
g10
sg5
I33
sg6
g11
ss(I-6
I-4
tp62
(dp63
g3
g25
sg5
I34
sg6
g11
ss(I-3
I1
tp64
(dp65
g3
g25
sg5
I10
sg6
g7
ss(I4
I-4
tp66
(dp67
g3
g10
sg5
I74
sg6
g15
ss(I1
I-4
tp68
(dp69
g3
S'\xe5\xb1\xb12'
p70
sg5
I66
sg6
g7
ss(I-7
I-2
tp71
(dp72
g3
g33
sg5
I41
sg6
g7
ss(I0
I-3
tp73
(dp74
g3
g25
sg5
I20
sg6
g11
ss(I0
I1
tp75
(dp76
g3
g14
sg5
I1
sg6
g11
ss(I3
I1
tp77
(dp78
g3
g10
sg5
I32
sg6
g11
ss(I-1
I-2
tp79
(dp80
g3
g10
sg5
I2
sg6
g7
ss(I-6
I2
tp81
(dp82
g3
g20
sg5
I50
sg6
g7
ss(I-1
I3
tp83
(dp84
g3
g4
sg5
I64
sg6
g15
ss(I-6
I-1
tp85
(dp86
g3
g33
sg5
I43
sg6
g7
ss(I-4
I1
tp87
(dp88
g3
g10
sg5
I11
sg6
g7
ss(I4
I-5
tp89
(dp90
g3
g33
sg5
I81
sg6
g7
ss(I-2
I4
tp91
(dp92
g3
g70
sg5
I61
sg6
g15
ss(I-3
I4
tp93
(dp94
g3
g28
sg5
I57
sg6
g15
ss(I-2
I2
tp95
(dp96
g3
g20
sg5
I17
sg6
g15
ss(I3
I-3
tp97
(dp98
g3
g14
sg5
I71
sg6
g11
ss(I-2
I-3
tp99
(dp100
g3
g28
sg5
I4
sg6
g7
ss(I-7
I0
tp101
(dp102
g3
g14
sg5
I46
sg6
g11
ss(I5
I-5
tp103
(dp104
g3
g20
sg5
I81
sg6
g15
ss(I5
I1
tp105
(dp106
g3
g28
sg5
I86
sg6
g7
ss(I6
I-2
tp107
(dp108
g3
g28
sg5
I91
sg6
g7
ss(I4
I-2
tp109
(dp110
g3
g25
sg5
I76
sg6
g11
ss(I-7
I-4
tp111
(dp112
g3
g25
sg5
I35
sg6
g7
ss(I2
I-3
tp113
(dp114
g3
g10
sg5
I30
sg6
g7
ss(I1
I-1
tp115
(dp116
g3
g14
sg5
I21
sg6
g15
ss(I5
I-2
tp117
(dp118
g3
g70
sg5
I83
sg6
g11
ss(I-1
I-1
tp119
(dp120
g3
g20
sg5
I14
sg6
g7
ss(I6
I1
tp121
(dp122
g3
g28
sg5
I93
sg6
g15
ss(I-7
I3
tp123
(dp124
g3
g4
sg5
I53
sg6
g15
ss(I4
I1
tp125
(dp126
g3
g70
sg5
I78
sg6
g15
ss(I-5
I0
tp127
(dp128
g3
g14
sg5
I47
sg6
g11
ss(I5
I4
tp129
(dp130
g3
g10
sg5
I95
sg6
g15
ss(I-1
I2
tp131
(dp132
g3
g33
sg5
I17
sg6
g7
ss(I2
I-2
tp133
(dp134
g3
g25
sg5
I24
sg6
g7
ss(I-1
I-5
tp135
(dp136
g3
g4
sg5
I65
sg6
g15
ss(I-1
I4
tp137
(dp138
g3
g20
sg5
I61
sg6
g7
ss(I1
I0
tp139
(dp140
g3
g4
sg5
I22
sg6
g7
ss(I-3
I-5
tp141
(dp142
g3
g14
sg5
I58
sg6
g15
ss(I-2
I-5
tp143
(dp144
g3
g33
sg5
I63
sg6
g11
ss(I-4
I-2
tp145
(dp146
g3
g28
sg5
I3
sg6
g15
ss(I-6
I-3
tp147
(dp148
g3
g20
sg5
I34
sg6
g15
ss(I3
I-2
tp149
(dp150
g3
g20
sg5
I29
sg6
g11
ss(I0
I-1
tp151
(dp152
g3
g14
sg5
I19
sg6
g11
ss(I0
I2
tp153
(dp154
g3
g10
sg5
I1
sg6
g11
ss(I-3
I0
tp155
(dp156
g3
g4
sg5
I7
sg6
g7
ss(I1
I3
tp157
(dp158
g3
g70
sg5
I28
sg6
g11
ss(I-3
I-2
tp159
(dp160
g3
g4
sg5
I2
sg6
g11
ss(I-6
I3
tp161
(dp162
g3
g10
sg5
I52
sg6
g15
ss(I5
I-1
tp163
(dp164
g3
g20
sg5
I84
sg6
g15
ss(I-4
I-1
tp165
(dp166
g3
g10
sg5
I6
sg6
g11
ss(I-4
I2
tp167
(dp168
g3
g14
sg5
I49
sg6
g7
ss(I-6
I-2
tp169
(dp170
g3
g4
sg5
I40
sg6
g15
ss(I-3
I3
tp171
(dp172
g3
g4
sg5
I60
sg6
g7
ss(I6
I2
tp173
(dp174
g3
g4
sg5
I93
sg6
g11
ss(I1
I-2
tp175
(dp176
g3
g70
sg5
I2
sg6
g11
ss(I0
I-5
tp177
(dp178
g3
g4
sg5
I67
sg6
g15
ss(I2
I-4
tp179
(dp180
g3
g33
sg5
I68
sg6
g15
ss(I-5
I4
tp181
(dp182
g3
g20
sg5
I57
sg6
g11
ss(I-6
I4
tp183
(dp184
g3
g70
sg5
I54
sg6
g11
ss(I-5
I-2
tp185
(dp186
g3
g20
sg5
I42
sg6
g15
ss(I0
I-2
tp187
(dp188
g3
g10
sg5
I2
sg6
g11
ss(I-5
I-1
tp189
(dp190
g3
g4
sg5
I44
sg6
g15
ss(I1
I4
tp191
(dp192
g3
g4
sg5
I28
sg6
g7
ss(I2
I3
tp193
(dp194
g3
g28
sg5
I70
sg6
g11
ss(I2
I1
tp195
(dp196
g3
g25
sg5
I27
sg6
g11
ss(I-7
I2
tp197
(dp198
g3
g14
sg5
I51
sg6
g7
ss(I4
I2
tp199
(dp200
g3
g14
sg5
I79
sg6
g15
ss(I-5
I3
tp201
(dp202
g3
g28
sg5
I52
sg6
g11
ss(I-5
I-3
tp203
(dp204
g3
g10
sg5
I39
sg6
g7
ss(I6
I-3
tp205
(dp206
g3
g14
sg5
I90
sg6
g11
ss(I-4
I4
tp207
(dp208
g3
g10
sg5
I57
sg6
g11
ss(I-7
I-1
tp209
(dp210
g3
g25
sg5
I41
sg6
g11
ss(I-2
I3
tp211
(dp212
g3
g28
sg5
I61
sg6
g15
ss(I6
I-1
tp213
(dp214
g3
g10
sg5
I92
sg6
g11
ss(I3
I4
tp215
(dp216
g3
g25
sg5
I70
sg6
g7
ss(I2
I4
tp217
(dp218
g3
g10
sg5
I70
sg6
g11
ss(I2
I0
tp219
(dp220
g3
g20
sg5
I22
sg6
g11
ss(I3
I2
tp221
(dp222
g3
g20
sg5
I72
sg6
g7
ss(I3
I-1
tp223
(dp224
g3
g20
sg5
I26
sg6
g11
ss(I0
I3
tp225
(dp226
g3
g4
sg5
I64
sg6
g7
ss(I1
I2
tp227
(dp228
g3
g25
sg5
I28
sg6
g15
ss(I-3
I-3
tp229
(dp230
g3
g4
sg5
I4
sg6
g7
ss(I-2
I-4
tp231
(dp232
g3
g4
sg5
I58
sg6
g15
ss(I-6
I0
tp233
(dp234
g3
g70
sg5
I45
sg6
g15
ss(I-4
I-4
tp235
(dp236
g3
g14
sg5
I55
sg6
g11
ss(I4
I4
tp237
(dp238
g3
g4
sg5
I88
sg6
g15
ss(I-3
I-1
tp239
(dp240
g3
g14
sg5
I5
sg6
g11
ss(I4
I-1
tp241
(dp242
g3
g20
sg5
I26
sg6
g15
ss(I6
I3
tp243
(dp244
g3
g10
sg5
I94
sg6
g7
ss(I-3
I2
tp245
(dp246
g3
g33
sg5
I13
sg6
g15
ss(I-1
I1
tp247
(dp248
g3
g28
sg5
I16
sg6
g7
ss(I1
I-3
tp249
(dp250
g3
g25
sg5
I25
sg6
g11
ss(I0
I-4
tp251
(dp252
g3
g20
sg5
I62
sg6
g11
ss(I5
I-4
tp253
(dp254
g3
g14
sg5
I80
sg6
g11
ss(I0
I0
tp255
(dp256
g3
g70
sg5
I1
sg6
g11
ss(I4
I3
tp257
(dp258
g3
g25
sg5
I73
sg6
g11
ss(I-2
I1
tp259
(dp260
g3
g70
sg5
I12
sg6
g15
ss(I-2
I-1
tp261
(dp262
g3
g10
sg5
I2
sg6
g7
ss(I-4
I0
tp263
(dp264
g3
g10
sg5
I8
sg6
g11
ss(I4
I0
tp265
(dp266
g3
g4
sg5
I77
sg6
g7
ss(I2
I-5
tp267
(dp268
g3
g28
sg5
I69
sg6
g11
ss(I3
I-5
tp269
(dp270
g3
g70
sg5
I71
sg6
g15
ss(I3
I3
tp271
(dp272
g3
g70
sg5
I73
sg6
g15
ss(I5
I2
tp273
(dp274
g3
g33
sg5
I86
sg6
g11
ss(I-1
I-4
tp275
(dp276
g3
g14
sg5
I62
sg6
g15
ss(I-7
I1
tp277
(dp278
g3
g33
sg5
I46
sg6
g15
ss(I-4
I-5
tp279
(dp280
g3
g14
sg5
I59
sg6
g7
ss(I6
I-4
tp281
(dp282
g3
g4
sg5
I89
sg6
g11
ss(I-5
I2
tp283
(dp284
g3
g33
sg5
I49
sg6
g11
ss(I-5
I-4
tp285
(dp286
g3
g14
sg5
I36
sg6
g11
ss.