(dp0
I1
(dp1
S'\xe5\x9c\xb0\xe5\x8c\xba\xe5\x90\x8d'
p2
S'\xe6\xb3\xb0\xe5\xae\x89'
p3
sS'\xe7\xbb\x8f\xe6\xb5\x8e'
p4
I58
sS'\xe5\x9c\xb0\xe5\x9d\x97'
p5
(lp6
(I0
I0
tp7
a(I0
I1
tp8
a(I0
I2
tp9
asS'\xe4\xba\xba\xe5\x8f\xa3\xe6\x95\xb0'
p10
I152
sS'\xe5\x85\xb5\xe5\x8a\x9b'
p11
I0
sS'\xe5\x9d\x90\xe6\xa0\x87'
p12
g7
sS'\xe7\xb2\xae\xe9\xa3\x9f'
p13
(dp14
S'\xe6\xb5\x81\xe9\x80\x9a'
p15
I47512
sS'\xe5\x9b\xbd\xe5\xba\x93'
p16
I0
ssS'\xe5\x9b\xbd\xe5\xae\xb6'
p17
I1
sS'id'
p18
I1
ssI2
(dp19
g2
S'\xe6\xb9\x98\xe6\xbd\xad'
p20
sg4
I3
sg5
(lp21
(I-3
I-2
tp22
a(I-2
I-2
tp23
a(I-2
I-1
tp24
a(I-1
I-2
tp25
a(I0
I-2
tp26
a(I1
I-2
tp27
asg10
I64
sg11
I7
sg12
g22
sg13
(dp28
g15
I17513
sg16
I65
ssg17
I2
sg18
I2
ssI3
(dp29
g2
S'\xe5\xae\x89\xe9\x98\xb3'
p30
sg4
I13
sg5
(lp31
(I-4
I-2
tp32
a(I-4
I-3
tp33
asg10
I115
sg11
I14
sg12
g32
sg13
(dp34
g15
I40830
sg16
I22
ssg17
I2
sg18
I3
ssI4
(dp35
g2
S'\xe4\xb9\x90\xe5\xb9\xb3'
p36
sg4
I43
sg5
(lp37
(I-3
I-3
tp38
a(I-2
I-3
tp39
asg10
I86
sg11
I16
sg12
g38
sg13
(dp40
g15
I23496
sg16
I101
ssg17
I3
sg18
I4
ssI5
(dp41
g2
S'\xe6\x95\xa6\xe7\x85\x8c'
p42
sg4
I46
sg5
(lp43
(I-3
I-1
tp44
asg10
I93
sg11
I4
sg12
g44
sg13
(dp45
g15
I3240
sg16
I106
ssg17
I4
sg18
I5
ssI6
(dp46
g2
S'\xe6\x97\xa5\xe5\x96\x80\xe5\x88\x99'
p47
sg4
I66
sg5
(lp48
(I-4
I-1
tp49
asg10
I10
sg11
I19
sg12
g49
sg13
(dp50
g15
I6868
sg16
I21
ssg17
I4
sg18
I6
ssI7
(dp51
g2
S'\xe6\x98\x86\xe6\x98\x8e'
p52
sg4
I83
sg5
(lp53
(I-3
I0
tp54
asg10
I112
sg11
I2
sg12
g54
sg13
(dp55
g15
I1619
sg16
I114
ssg17
I5
sg18
I7
ssI8
(dp56
g2
S'\xe6\x80\x80\xe5\x8c\x96'
p57
sg4
I8
sg5
(lp58
(I-4
I0
tp59
asg10
I17
sg11
I18
sg12
g59
sg13
(dp60
g15
I23677
sg16
I39
ssg17
I6
sg18
I8
ssI9
(dp61
g2
S'\xe6\x89\xac\xe5\xb7\x9e'
p62
sg4
I17
sg5
(lp63
(I-2
I0
tp64
asg10
I67
sg11
I5
sg12
g64
sg13
(dp65
g15
I31254
sg16
I30
ssg17
I5
sg18
I9
ssI10
(dp66
g2
S'\xe9\x87\x91\xe5\x8d\x8e'
p67
sg4
I100
sg5
(lp68
(I-3
I1
tp69
asg10
I77
sg11
I10
sg12
g69
sg13
(dp70
g15
I16821
sg16
I108
ssg17
I7
sg18
I10
ssI11
(dp71
g2
S'\xe9\x98\x9c\xe9\x98\xb3'
p72
sg4
I94
sg5
(lp73
(I-4
I1
tp74
asg10
I42
sg11
I10
sg12
g74
sg13
(dp75
g15
I8756
sg16
I12
ssg17
I6
sg18
I11
ssI12
(dp76
g2
S'\xe5\xbe\xb7\xe4\xbb\xa4\xe5\x93\x88'
p77
sg4
I30
sg5
(lp78
(I-2
I1
tp79
asg10
I99
sg11
I18
sg12
g79
sg13
(dp80
g15
I18079
sg16
I47
ssg17
I8
sg18
I12
ssI13
(dp81
g2
S'\xe5\x8c\x85\xe5\xa4\xb4'
p82
sg4
I26
sg5
(lp83
(I-3
I2
tp84
asg10
I73
sg11
I10
sg12
g84
sg13
(dp85
g15
I34148
sg16
I69
ssg17
I7
sg18
I13
ssI14
(dp86
g2
S'\xe9\x87\x91\xe5\x9d\x9b'
p87
sg4
I71
sg5
(lp88
(I-1
I-1
tp89
asg10
I73
sg11
I5
sg12
g89
sg13
(dp90
g15
I45352
sg16
I65
ssg17
I2
sg18
I14
ssI15
(dp91
g2
S'\xe9\x95\xbf\xe8\x91\x9b'
p92
sg4
I18
sg5
(lp93
(I-1
I0
tp94
asg10
I100
sg11
I0
sg12
g94
sg13
(dp95
g15
I58140
sg16
I91
ssg17
I2
sg18
I15
ssI16
(dp96
g2
S'\xe9\x83\xad\xe5\x8b\x92'
p97
sg4
I34
sg5
(lp98
(I-1
I1
tp99
asg10
I0
sg11
I17
sg12
g99
sg13
(dp100
g15
I44854
sg16
I36
ssg17
I9
sg18
I16
ssI17
(dp101
g2
S'\xe8\x81\x8a\xe5\x9f\x8e'
p102
sg4
I51
sg5
(lp103
(I-2
I2
tp104
a(I-1
I2
tp105
asg10
I77
sg11
I13
sg12
g104
sg13
(dp106
g15
I54186
sg16
I63
ssg17
I10
sg18
I17
ssI18
(dp107
g2
S'\xe4\xb9\x8c\xe5\x85\xb0\xe7\x89\xb9'
p108
sg4
I28
sg5
(lp109
(I-1
I-3
tp110
asg10
I13
sg11
I12
sg12
g110
sg13
(dp111
g15
I56651
sg16
I96
ssg17
I11
sg18
I18
ssI19
(dp112
g2
S'\xe9\x94\xa1\xe6\x9e\x97'
p113
sg4
I21
sg5
(lp114
(I0
I-1
tp115
asg10
I96
sg11
I14
sg12
g115
sg13
(dp116
g15
I57089
sg16
I46
ssg17
I1
sg18
I19
ssI20
(dp117
g2
S'\xe5\x8f\xa4\xe7\xba\xb3'
p118
sg4
I116
sg5
(lp119
(I0
I-3
tp120
asg10
I59
sg11
I14
sg12
g120
sg13
(dp121
g15
I52627
sg16
I104
ssg17
I12
sg18
I20
ssI21
(dp122
g2
S'\xe4\xb8\x8a\xe9\xa5\xb6'
p123
sg4
I34
sg5
(lp124
(I1
I-1
tp125
asg10
I6
sg11
I8
sg12
g125
sg13
(dp126
g15
I2098
sg16
I60
ssg17
I13
sg18
I21
ssI22
(dp127
g2
S'\xe8\xa1\xa2\xe5\xb7\x9e'
p128
sg4
I30
sg5
(lp129
(I1
I0
tp130
a(I2
I0
tp131
asg10
I2
sg11
I10
sg12
g130
sg13
(dp132
g15
I9067
sg16
I9
ssg17
I14
sg18
I22
ssI23
(dp133
g2
S'\xe5\xae\xbf\xe8\xbf\x81'
p134
sg4
I70
sg5
(lp135
(I1
I1
tp136
asg10
I70
sg11
I7
sg12
g136
sg13
(dp137
g15
I14936
sg16
I81
ssg17
I15
sg18
I23
ssI24
(dp138
g2
S'\xe5\x8c\x97\xe5\xae\x89'
p139
sg4
I34
sg5
(lp140
(I2
I-2
tp141
asg10
I89
sg11
I6
sg12
g141
sg13
(dp142
g15
I722
sg16
I57
ssg17
I2
sg18
I24
ssI25
(dp143
g2
S'\xe8\x8e\xb1\xe9\x98\xb3'
p144
sg4
I118
sg5
(lp145
(I1
I-3
tp146
asg10
I117
sg11
I16
sg12
g146
sg13
(dp147
g15
I6052
sg16
I95
ssg17
I16
sg18
I25
ssI26
(dp148
g2
S'\xe9\xb9\xa4\xe5\xb2\x97'
p149
sg4
I20
sg5
(lp150
(I2
I-1
tp151
a(I3
I-1
tp152
a(I4
I-1
tp153
asg10
I110
sg11
I5
sg12
g151
sg13
(dp154
g15
I23506
sg16
I47
ssg17
I17
sg18
I26
ssI27
(dp155
g2
S'\xe6\x89\x8e\xe5\x85\xb0\xe5\xb1\xaf'
p156
sg4
I12
sg5
(lp157
(I2
I1
tp158
asg10
I0
sg11
I4
sg12
g158
sg13
(dp159
g15
I13404
sg16
I0
ssg17
I18
sg18
I27
ssI28
(dp160
g2
S'\xe4\xb8\xb4\xe6\xb2\xa7'
p161
sg4
I60
sg5
(lp162
(I1
I2
tp163
a(I1
I3
tp164
a(I1
I4
tp165
asg10
I5
sg11
I20
sg12
g163
sg13
(dp166
g15
I31051
sg16
I1
ssg17
I19
sg18
I28
ssI29
(dp167
g2
S'\xe6\xb3\xb0\xe5\x85\xb4'
p168
sg4
I4
sg5
(lp169
(I3
I-2
tp170
asg10
I114
sg11
I0
sg12
g170
sg13
(dp171
g15
I23216
sg16
I44
ssg17
I2
sg18
I29
ssI30
(dp172
g2
S'\xe9\xab\x98\xe5\xae\x89'
p173
sg4
I80
sg5
(lp174
(I2
I-3
tp175
asg10
I104
sg11
I13
sg12
g175
sg13
(dp176
g15
I267
sg16
I24
ssg17
I20
sg18
I30
ssI31
(dp177
g2
S'\xe6\x96\xb0\xe4\xb9\xa1'
p178
sg4
I65
sg5
(lp179
(I3
I0
tp180
asg10
I36
sg11
I9
sg12
g180
sg13
(dp181
g15
I28221
sg16
I1
ssg17
I21
sg18
I31
ssI32
(dp182
g2
S'\xe5\x9b\xba\xe5\x8e\x9f'
p183
sg4
I119
sg5
(lp184
(I3
I1
tp185
asg10
I11
sg11
I19
sg12
g185
sg13
(dp186
g15
I40651
sg16
I47
ssg17
I21
sg18
I32
ssI33
(dp187
g2
S'\xe6\xad\xa6\xe7\xa9\xb4'
p188
sg4
I79
sg5
(lp189
(I2
I2
tp190
asg10
I47
sg11
I2
sg12
g190
sg13
(dp191
g15
I27045
sg16
I36
ssg17
I22
sg18
I33
ssI34
(dp192
g2
S'\xe6\xad\xa6\xe5\xa8\x81'
p193
sg4
I117
sg5
(lp194
(I-6
I-4
tp195
a(I-6
I-3
tp196
asg10
I97
sg11
I12
sg12
g195
sg13
(dp197
g15
I2335
sg16
I29
ssg17
I23
sg18
I34
ssI35
(dp198
g2
S'\xe9\x95\xbf\xe8\x91\x9b'
p199
sg4
I13
sg5
(lp200
(I-7
I-4
tp201
asg10
I119
sg11
I14
sg12
g201
sg13
(dp202
g15
I312
sg16
I102
ssg17
I24
sg18
I35
ssI36
(dp203
g2
S'\xe5\x8d\x81\xe5\xa0\xb0'
p204
sg4
I110
sg5
(lp205
(I-5
I-4
tp206
a(I-5
I-5
tp207
asg10
I87
sg11
I1
sg12
g206
sg13
(dp208
g15
I30470
sg16
I77
ssg17
I25
sg18
I36
ssI37
(dp209
g2
S'\xe4\xb8\x9c\xe6\x96\xb9'
p210
sg4
I35
sg5
(lp211
(I-6
I-5
tp212
asg10
I2
sg11
I12
sg12
g212
sg13
(dp213
g15
I15059
sg16
I111
ssg17
I26
sg18
I37
ssI38
(dp214
g2
S'\xe6\xb6\x9f\xe6\xba\x90'
p215
sg4
I105
sg5
(lp216
(I-7
I-3
tp217
asg10
I88
sg11
I9
sg12
g217
sg13
(dp218
g15
I39210
sg16
I38
ssg17
I27
sg18
I38
ssI39
(dp219
g2
S'\xe5\x85\xb4\xe5\x8c\x96'
p220
sg4
I108
sg5
(lp221
(I-5
I-3
tp222
asg10
I91
sg11
I9
sg12
g222
sg13
(dp223
g15
I39221
sg16
I35
ssg17
I25
sg18
I39
ssI40
(dp224
g2
S'\xe4\xb8\xb4\xe6\xb2\xa7'
p225
sg4
I85
sg5
(lp226
(I-6
I-2
tp227
asg10
I83
sg11
I17
sg12
g227
sg13
(dp228
g15
I7732
sg16
I67
ssg17
I23
sg18
I40
ssI41
(dp229
g2
S'\xe8\x82\x87\xe4\xb8\x9c'
p230
sg4
I59
sg5
(lp231
(I-7
I-2
tp232
a(I-7
I-1
tp233
asg10
I50
sg11
I20
sg12
g232
sg13
(dp234
g15
I46907
sg16
I115
ssg17
I23
sg18
I41
ssI42
(dp235
g2
S'\xe5\xb8\xb8\xe7\x86\x9f'
p236
sg4
I91
sg5
(lp237
(I-5
I-2
tp238
asg10
I18
sg11
I10
sg12
g238
sg13
(dp239
g15
I2827
sg16
I39
ssg17
I2
sg18
I42
ssI43
(dp240
g2
S'\xe9\xbe\x99\xe4\xba\x95'
p241
sg4
I33
sg5
(lp242
(I-6
I-1
tp243
asg10
I65
sg11
I14
sg12
g243
sg13
(dp244
g15
I42719
sg16
I20
ssg17
I23
sg18
I43
ssI44
(dp245
g2
S'\xe9\x92\x9f\xe7\xa5\xa5'
p246
sg4
I92
sg5
(lp247
(I-5
I-1
tp248
asg10
I2
sg11
I5
sg12
g248
sg13
(dp249
g15
I38374
sg16
I70
ssg17
I23
sg18
I44
ssI45
(dp250
g2
S'\xe7\x9f\xb3\xe5\x98\xb4\xe5\xb1\xb1'
p251
sg4
I37
sg5
(lp252
(I-6
I0
tp253
asg10
I69
sg11
I2
sg12
g253
sg13
(dp254
g15
I22127
sg16
I15
ssg17
I28
sg18
I45
ssI46
(dp255
g2
S'\xe4\xb8\xbd\xe6\xb0\xb4'
p256
sg4
I20
sg5
(lp257
(I-7
I0
tp258
a(I-7
I1
tp259
asg10
I1
sg11
I7
sg12
g258
sg13
(dp260
g15
I55376
sg16
I14
ssg17
I28
sg18
I46
ssI47
(dp261
g2
S'\xe7\x99\xbd\xe9\x93\xb6'
p262
sg4
I67
sg5
(lp263
(I-5
I0
tp264
asg10
I31
sg11
I0
sg12
g264
sg13
(dp265
g15
I48316
sg16
I65
ssg17
I28
sg18
I47
ssI48
(dp266
g2
S'\xe8\xa5\x84\xe6\xa8\x8a'
p267
sg4
I10
sg5
(lp268
(I-6
I1
tp269
asg10
I35
sg11
I16
sg12
g269
sg13
(dp270
g15
I41757
sg16
I27
ssg17
I29
sg18
I48
ssI49
(dp271
g2
S'\xe6\xb2\x88\xe9\x98\xb3'
p272
sg4
I32
sg5
(lp273
(I-5
I1
tp274
a(I-5
I2
tp275
a(I-4
I2
tp276
asg10
I3
sg11
I19
sg12
g274
sg13
(dp277
g15
I31731
sg16
I112
ssg17
I29
sg18
I49
ssI50
(dp278
g2
S'\xe5\x8f\xb0\xe5\x8d\x97'
p279
sg4
I72
sg5
(lp280
(I-6
I2
tp281
asg10
I52
sg11
I10
sg12
g281
sg13
(dp282
g15
I39076
sg16
I103
ssg17
I29
sg18
I50
ssI51
(dp283
g2
S'\xe6\xb6\x9f\xe6\xba\x90'
p284
sg4
I77
sg5
(lp285
(I-7
I2
tp286
asg10
I103
sg11
I17
sg12
g286
sg13
(dp287
g15
I43486
sg16
I73
ssg17
I30
sg18
I51
ssI52
(dp288
g2
S'\xe5\xa4\xa7\xe5\xae\x89'
p289
sg4
I82
sg5
(lp290
(I-6
I3
tp291
a(I-5
I3
tp292
asg10
I39
sg11
I13
sg12
g291
sg13
(dp293
g15
I27662
sg16
I120
ssg17
I29
sg18
I52
ssI53
(dp294
g2
S'\xe5\xbb\xb6\xe5\xae\x89'
p295
sg4
I120
sg5
(lp296
(I-7
I3
tp297
asg10
I22
sg11
I7
sg12
g297
sg13
(dp298
g15
I38092
sg16
I79
ssg17
I31
sg18
I53
ssI54
(dp299
g2
S'\xe6\xb2\x81\xe9\x98\xb3'
p300
sg4
I95
sg5
(lp301
(I-6
I4
tp302
asg10
I61
sg11
I3
sg12
g302
sg13
(dp303
g15
I52968
sg16
I74
ssg17
I32
sg18
I54
ssI55
(dp304
g2
S'\xe4\xba\x94\xe5\xa4\xa7\xe8\xbf\x9e\xe6\xb1\xa0'
p305
sg4
I110
sg5
(lp306
(I-4
I-4
tp307
asg10
I107
sg11
I11
sg12
g307
sg13
(dp308
g15
I47156
sg16
I39
ssg17
I25
sg18
I55
ssI56
(dp309
g2
S'\xe6\x98\x86\xe5\xb1\xb1'
p310
sg4
I80
sg5
(lp311
(I-4
I3
tp312
asg10
I74
sg11
I3
sg12
g312
sg13
(dp313
g15
I41116
sg16
I4
ssg17
I33
sg18
I56
ssI57
(dp314
g2
S'\xe7\x8f\xa0\xe6\xb5\xb7'
p315
sg4
I41
sg5
(lp316
(I-5
I4
tp317
a(I-4
I4
tp318
a(I-3
I4
tp319
asg10
I106
sg11
I12
sg12
g317
sg13
(dp320
g15
I44815
sg16
I33
ssg17
I34
sg18
I57
ssI58
(dp321
g2
S'\xe7\x8f\xa0\xe6\xb5\xb7'
p322
sg4
I99
sg5
(lp323
(I-3
I-4
tp324
a(I-2
I-4
tp325
a(I-3
I-5
tp326
asg10
I82
sg11
I7
sg12
g324
sg13
(dp327
g15
I9662
sg16
I97
ssg17
I35
sg18
I58
ssI59
(dp328
g2
S'\xe5\xbe\xb7\xe6\x83\xa0'
p329
sg4
I37
sg5
(lp330
(I-4
I-5
tp331
asg10
I61
sg11
I11
sg12
g331
sg13
(dp332
g15
I35769
sg16
I109
ssg17
I36
sg18
I59
ssI60
(dp333
g2
S'\xe7\x8e\x89\xe6\xba\xaa'
p334
sg4
I64
sg5
(lp335
(I-3
I3
tp336
asg10
I63
sg11
I12
sg12
g336
sg13
(dp337
g15
I56873
sg16
I64
ssg17
I37
sg18
I60
ssI61
(dp338
g2
S'\xe6\xb2\x85\xe6\xb1\x9f'
p339
sg4
I27
sg5
(lp340
(I-2
I3
tp341
a(I-2
I4
tp342
a(I-1
I4
tp343
a(I0
I4
tp344
asg10
I36
sg11
I18
sg12
g341
sg13
(dp345
g15
I16135
sg16
I29
ssg17
I37
sg18
I61
ssI62
(dp346
g2
S'\xe4\xb8\x9c\xe6\xb8\xaf'
p347
sg4
I47
sg5
(lp348
(I-1
I-4
tp349
a(I0
I-4
tp350
asg10
I104
sg11
I10
sg12
g349
sg13
(dp351
g15
I40399
sg16
I41
ssg17
I38
sg18
I62
ssI63
(dp352
g2
S'\xe6\xb8\x85\xe8\xbf\x9c'
p353
sg4
I9
sg5
(lp354
(I-2
I-5
tp355
asg10
I16
sg11
I4
sg12
g355
sg13
(dp356
g15
I11946
sg16
I100
ssg17
I39
sg18
I63
ssI64
(dp357
g2
S'\xe8\x91\xab\xe8\x8a\xa6\xe5\xb2\x9b'
p358
sg4
I46
sg5
(lp359
(I-1
I3
tp360
a(I0
I3
tp361
asg10
I8
sg11
I12
sg12
g360
sg13
(dp362
g15
I6464
sg16
I114
ssg17
I40
sg18
I64
ssI65
(dp363
g2
S'\xe9\x98\x9c\xe6\x96\xb0'
p364
sg4
I89
sg5
(lp365
(I-1
I-5
tp366
asg10
I14
sg11
I0
sg12
g366
sg13
(dp367
g15
I13178
sg16
I107
ssg17
I41
sg18
I65
ssI66
(dp368
g2
S'\xe6\x8a\x9a\xe5\xb7\x9e'
p369
sg4
I109
sg5
(lp370
(I1
I-4
tp371
asg10
I41
sg11
I6
sg12
g371
sg13
(dp372
g15
I750
sg16
I64
ssg17
I16
sg18
I66
ssI67
(dp373
g2
S'\xe5\xa1\x94\xe5\x9f\x8e'
p374
sg4
I28
sg5
(lp375
(I0
I-5
tp376
asg10
I23
sg11
I9
sg12
g376
sg13
(dp377
g15
I31296
sg16
I87
ssg17
I41
sg18
I67
ssI68
(dp378
g2
S'\xe4\xb9\x90\xe9\x99\xb5'
p379
sg4
I26
sg5
(lp380
(I2
I-4
tp381
asg10
I14
sg11
I19
sg12
g381
sg13
(dp382
g15
I3748
sg16
I91
ssg17
I42
sg18
I68
ssI69
(dp383
g2
S'\xe5\x8d\x97\xe6\x98\x8c'
p384
sg4
I2
sg5
(lp385
(I1
I-5
tp386
a(I2
I-5
tp387
asg10
I60
sg11
I1
sg12
g386
sg13
(dp388
g15
I45055
sg16
I81
ssg17
I16
sg18
I69
ssI70
(dp389
g2
S'\xe7\x83\x9f\xe5\x8f\xb0'
p390
sg4
I109
sg5
(lp391
(I2
I3
tp392
a(I2
I4
tp393
a(I3
I4
tp394
asg10
I54
sg11
I12
sg12
g392
sg13
(dp395
g15
I50520
sg16
I78
ssg17
I43
sg18
I70
ssI71
(dp396
g2
S'\xe6\x89\xac\xe4\xb8\xad'
p397
sg4
I88
sg5
(lp398
(I3
I-4
tp399
a(I3
I-3
tp400
a(I3
I-5
tp401
asg10
I106
sg11
I19
sg12
g399
sg13
(dp402
g15
I58356
sg16
I76
ssg17
I44
sg18
I71
ssI72
(dp403
g2
S'\xe5\xbd\xad\xe5\xb7\x9e'
p404
sg4
I47
sg5
(lp405
(I3
I2
tp406
asg10
I21
sg11
I9
sg12
g406
sg13
(dp407
g15
I55751
sg16
I114
ssg17
I45
sg18
I72
ssI73
(dp408
g2
S'\xe8\x80\x81\xe6\xb2\xb3\xe5\x8f\xa3'
p409
sg4
I67
sg5
(lp410
(I3
I3
tp411
a(I4
I3
tp412
asg10
I5
sg11
I18
sg12
g411
sg13
(dp413
g15
I55276
sg16
I116
ssg17
I46
sg18
I73
ssI74
(dp414
g2
S'\xe5\xbc\x80\xe5\x8e\x9f'
p415
sg4
I59
sg5
(lp416
(I4
I-4
tp417
asg10
I97
sg11
I17
sg12
g417
sg13
(dp418
g15
I53211
sg16
I17
ssg17
I44
sg18
I74
ssI75
(dp419
g2
S'\xe7\x9b\x90\xe5\x9f\x8e'
p420
sg4
I96
sg5
(lp421
(I4
I-3
tp422
asg10
I34
sg11
I16
sg12
g422
sg13
(dp423
g15
I40364
sg16
I111
ssg17
I47
sg18
I75
ssI76
(dp424
g2
S'\xe9\xbd\x90\xe9\xbd\x90'
p425
sg4
I1
sg5
(lp426
(I4
I-2
tp427
asg10
I23
sg11
I8
sg12
g427
sg13
(dp428
g15
I15825
sg16
I10
ssg17
I2
sg18
I76
ssI77
(dp429
g2
S'\xe6\xb0\xb8\xe6\xb5\x8e'
p430
sg4
I88
sg5
(lp431
(I4
I0
tp432
asg10
I90
sg11
I20
sg12
g432
sg13
(dp433
g15
I44006
sg16
I89
ssg17
I48
sg18
I77
ssI78
(dp434
g2
S'\xe5\x85\xad\xe7\x9b\x98\xe6\xb0\xb4'
p435
sg4
I48
sg5
(lp436
(I4
I1
tp437
asg10
I72
sg11
I20
sg12
g437
sg13
(dp438
g15
I57642
sg16
I19
ssg17
I49
sg18
I78
ssI79
(dp439
g2
S'\xe9\xbb\x84\xe9\xaa\x85'
p440
sg4
I114
sg5
(lp441
(I4
I2
tp442
asg10
I54
sg11
I0
sg12
g442
sg13
(dp443
g15
I1372
sg16
I96
ssg17
I49
sg18
I79
ssI80
(dp444
g2
S'\xe4\xbe\xaf\xe9\xa9\xac'
p445
sg4
I21
sg5
(lp446
(I5
I-4
tp447
asg10
I48
sg11
I12
sg12
g447
sg13
(dp448
g15
I48836
sg16
I1
ssg17
I44
sg18
I80
ssI81
(dp449
g2
S'\xe4\xba\x94\xe5\xa4\xa7\xe8\xbf\x9e\xe6\xb1\xa0'
p450
sg4
I110
sg5
(lp451
(I4
I-5
tp452
a(I5
I-5
tp453
asg10
I70
sg11
I17
sg12
g452
sg13
(dp454
g15
I34634
sg16
I72
ssg17
I50
sg18
I81
ssI82
(dp455
g2
S'\xe7\xbd\x97\xe5\xae\x9a'
p456
sg4
I94
sg5
(lp457
(I5
I-3
tp458
asg10
I9
sg11
I8
sg12
g458
sg13
(dp459
g15
I44305
sg16
I7
ssg17
I47
sg18
I82
ssI83
(dp460
g2
S'\xe6\x9c\xac\xe6\xba\xaa'
p461
sg4
I71
sg5
(lp462
(I5
I-2
tp463
asg10
I59
sg11
I4
sg12
g463
sg13
(dp464
g15
I14477
sg16
I60
ssg17
I51
sg18
I83
ssI84
(dp465
g2
S'\xe9\xa9\xbb\xe9\xa9\xac\xe5\xba\x97'
p466
sg4
I46
sg5
(lp467
(I5
I-1
tp468
asg10
I28
sg11
I19
sg12
g468
sg13
(dp469
g15
I16297
sg16
I117
ssg17
I17
sg18
I84
ssI85
(dp470
g2
S'\xe6\xb1\xbe\xe9\x98\xb3'
p471
sg4
I33
sg5
(lp472
(I5
I0
tp473
asg10
I17
sg11
I0
sg12
g473
sg13
(dp474
g15
I34838
sg16
I107
ssg17
I17
sg18
I85
ssI86
(dp475
g2
S'\xe6\x8a\x9a\xe5\xb7\x9e'
p476
sg4
I13
sg5
(lp477
(I5
I1
tp478
a(I5
I2
tp479
asg10
I14
sg11
I19
sg12
g478
sg13
(dp480
g15
I12339
sg16
I29
ssg17
I52
sg18
I86
ssI87
(dp481
g2
S'\xe7\x99\xbe\xe8\x89\xb2'
p482
sg4
I74
sg5
(lp483
(I5
I3
tp484
asg10
I119
sg11
I1
sg12
g484
sg13
(dp485
g15
I22187
sg16
I29
ssg17
I53
sg18
I87
ssI88
(dp486
g2
S'\xe4\xb9\x89\xe4\xb9\x8c'
p487
sg4
I58
sg5
(lp488
(I4
I4
tp489
asg10
I90
sg11
I9
sg12
g489
sg13
(dp490
g15
I33995
sg16
I64
ssg17
I54
sg18
I88
ssI89
(dp491
g2
S'\xe7\x9b\x96\xe5\xb7\x9e'
p492
sg4
I95
sg5
(lp493
(I6
I-4
tp494
asg10
I42
sg11
I14
sg12
g494
sg13
(dp495
g15
I2753
sg16
I91
ssg17
I55
sg18
I89
ssI90
(dp496
g2
S'\xe5\xbb\xb6\xe5\x90\x89'
p497
sg4
I19
sg5
(lp498
(I6
I-3
tp499
asg10
I87
sg11
I5
sg12
g499
sg13
(dp500
g15
I54850
sg16
I52
ssg17
I56
sg18
I90
ssI91
(dp501
g2
S'\xe7\x91\x9e\xe4\xb8\xbd'
p502
sg4
I31
sg5
(lp503
(I6
I-2
tp504
asg10
I55
sg11
I8
sg12
g504
sg13
(dp505
g15
I16988
sg16
I90
ssg17
I57
sg18
I91
ssI92
(dp506
g2
S'\xe4\xb9\x8c\xe5\x85\xb0'
p507
sg4
I42
sg5
(lp508
(I6
I-1
tp509
a(I6
I0
tp510
asg10
I47
sg11
I17
sg12
g509
sg13
(dp511
g15
I39335
sg16
I46
ssg17
I58
sg18
I92
ssI93
(dp512
g2
S'\xe4\xb8\xaa\xe6\x97\xa7'
p513
sg4
I75
sg5
(lp514
(I6
I1
tp515
a(I6
I2
tp516
asg10
I6
sg11
I19
sg12
g515
sg13
(dp517
g15
I2380
sg16
I51
ssg17
I59
sg18
I93
ssI94
(dp518
g2
S'\xe8\xb5\xa4\xe5\xa3\x81'
p519
sg4
I28
sg5
(lp520
(I6
I3
tp521
asg10
I39
sg11
I6
sg12
g521
sg13
(dp522
g15
I37037
sg16
I43
ssg17
I60
sg18
I94
ssI95
(dp523
g2
S'\xe5\xa1\x94\xe5\x9f\x8e'
p524
sg4
I7
sg5
(lp525
(I5
I4
tp526
asg10
I14
sg11
I4
sg12
g526
sg13
(dp527
g15
I26274
sg16
I79
ssg17
I61
sg18
I95
ss.